; Function Attrs: mustprogress uwtable
define noundef i32 @_Z9xdr_floatP3XDRPf(ptr noundef %0, ptr nocapture noundef %1) local_unnamed_addr #0 {
  %3 = alloca i32, align 4
  %4 = load i32, ptr %0, align 8
  switch i32 %4, label %20 [
    i32 0, label %5
    i32 1, label %12
    i32 2, label %21
  ]

5:                                                ; preds = %2
  %6 = load i32, ptr %1, align 4
  store i32 %6, ptr %3, align 4
  %7 = getelementptr inbounds i8, ptr %0, i64 8
  %8 = load ptr, ptr %7, align 8
  %9 = getelementptr inbounds i8, ptr %8, i64 56
  %10 = load ptr, ptr %9, align 8
  %11 = call noundef i32 %10(ptr noundef nonnull %0, ptr noundef nonnull %3)
  br label %21

12:                                               ; preds = %2
  %13 = getelementptr inbounds i8, ptr %0, i64 8
  %14 = load ptr, ptr %13, align 8
  %15 = getelementptr inbounds i8, ptr %14, i64 48
  %16 = load ptr, ptr %15, align 8
  %17 = call noundef i32 %16(ptr noundef nonnull %0, ptr noundef nonnull %3)
  %.not = icmp eq i32 %17, 0
  br i1 %.not, label %20, label %18

18:                                               ; preds = %12
  %19 = load i32, ptr %3, align 4
  store i32 %19, ptr %1, align 4
  br label %21

20:                                               ; preds = %12, %2
  br label %21

21:                                               ; preds = %2, %20, %18, %5
  %.0 = phi i32 [ 0, %20 ], [ 1, %18 ], [ %11, %5 ], [ 1, %2 ]
  ret i32 %.0
}